; Function Attrs: nounwind uwtable
define dso_local i64 @jsonb_build_object_noargs(ptr noundef readnone captures(none) %0) local_unnamed_addr #0 {
  %2 = alloca %struct.JsonbInState, align 8
  call void @llvm.lifetime.start.p0(i64 32, ptr nonnull %2) #11
  call void @llvm.memset.p0.i64(ptr noundef nonnull align 8 dereferenceable(32) %2, i8 0, i64 32, i1 false)
  %3 = call ptr @pushJsonbValue(ptr noundef nonnull %2, i32 noundef 6, ptr noundef null) #11
  %4 = call ptr @pushJsonbValue(ptr noundef nonnull %2, i32 noundef 7, ptr noundef null) #11
  %5 = getelementptr inbounds nuw i8, ptr %2, i64 8
  store ptr %4, ptr %5, align 8
  %6 = call ptr @JsonbValueToJsonb(ptr noundef %4) #11
  %7 = ptrtoint ptr %6 to i64
  call void @llvm.lifetime.end.p0(i64 32, ptr nonnull %2) #11
  ret i64 %7
}